; Function Attrs: nounwind uwtable
define noalias ptr @l_Std_Time_ValidDate_ofOrdinal_go___boxed(ptr noundef %0, ptr noundef %1, ptr noundef %2, ptr noundef %3, ptr noundef readnone captures(none) %4, ptr noundef readnone captures(none) %5) local_unnamed_addr #1 {
  %7 = ptrtoint ptr %0 to i64
  %8 = lshr i64 %7, 1
  %9 = trunc i64 %8 to i8
  %10 = and i64 %7, 1
  %.not = icmp eq i64 %10, 0
  br i1 %.not, label %11, label %lean_dec.exit9

11:                                               ; preds = %6
  %12 = load i32, ptr %0, align 4, !tbaa !8
  %13 = icmp sgt i32 %12, 1
  br i1 %13, label %14, label %16, !prof !11

14:                                               ; preds = %11
  %15 = add nsw i32 %12, -1
  store i32 %15, ptr %0, align 4, !tbaa !8
  br label %lean_dec.exit9

16:                                               ; preds = %11
  %.not.i = icmp eq i32 %12, 0
  br i1 %.not.i, label %lean_dec.exit9, label %17

17:                                               ; preds = %16
  tail call void @lean_dec_ref_cold(ptr noundef nonnull %0) #5
  br label %lean_dec.exit9

lean_dec.exit9:                                   ; preds = %17, %16, %14, %6
  %18 = tail call ptr @l_Std_Time_ValidDate_ofOrdinal_go(i8 noundef zeroext %9, ptr noundef %1, ptr noundef %2, ptr noundef %3, ptr poison, ptr poison)
  %19 = ptrtoint ptr %1 to i64
  %20 = and i64 %19, 1
  %.not12 = icmp eq i64 %20, 0
  br i1 %.not12, label %21, label %lean_dec.exit

21:                                               ; preds = %lean_dec.exit9
  %22 = load i32, ptr %1, align 4, !tbaa !8
  %23 = icmp sgt i32 %22, 1
  br i1 %23, label %24, label %26, !prof !11

24:                                               ; preds = %21
  %25 = add nsw i32 %22, -1
  store i32 %25, ptr %1, align 4, !tbaa !8
  br label %lean_dec.exit

26:                                               ; preds = %21
  %.not.i10 = icmp eq i32 %22, 0
  br i1 %.not.i10, label %lean_dec.exit, label %27

27:                                               ; preds = %26
  tail call void @lean_dec_ref_cold(ptr noundef nonnull %1) #5
  br label %lean_dec.exit

lean_dec.exit:                                    ; preds = %27, %26, %24, %lean_dec.exit9
  ret ptr %18
}